ARM GAS  C:\Users\PNGUBO~1\AppData\Local\Temp\ccILTzCt.s 			page 1


   1              		.cpu cortex-m4
   2              		.arch armv7e-m
   3              		.fpu fpv4-sp-d16
   4              		.eabi_attribute 27, 1
   5              		.eabi_attribute 28, 1
   6              		.eabi_attribute 20, 1
   7              		.eabi_attribute 21, 1
   8              		.eabi_attribute 23, 3
   9              		.eabi_attribute 24, 1
  10              		.eabi_attribute 25, 1
  11              		.eabi_attribute 26, 1
  12              		.eabi_attribute 30, 1
  13              		.eabi_attribute 34, 1
  14              		.eabi_attribute 18, 4
  15              		.file	"main.c"
  16              		.text
  17              		.section	.text.MX_GPIO_Init,"ax",%progbits
  18              		.align	1
  19              		.syntax unified
  20              		.thumb
  21              		.thumb_func
  23              	MX_GPIO_Init:
  24              		@ args = 0, pretend = 0, frame = 32
  25              		@ frame_needed = 0, uses_anonymous_args = 0
  26 0000 2DE9F04F 		push	{r4, r5, r6, r7, r8, r9, r10, fp, lr}
  27 0004 89B0     		sub	sp, sp, #36
  28 0006 03AD     		add	r5, sp, #12
  29 0008 0024     		movs	r4, #0
  30 000a 0394     		str	r4, [sp, #12]
  31 000c 0494     		str	r4, [sp, #16]
  32 000e 0594     		str	r4, [sp, #20]
  33 0010 0694     		str	r4, [sp, #24]
  34 0012 0794     		str	r4, [sp, #28]
  35 0014 0094     		str	r4, [sp]
  36 0016 2F4B     		ldr	r3, .L3
  37 0018 1A6B     		ldr	r2, [r3, #48]
  38 001a 42F08002 		orr	r2, r2, #128
  39 001e 1A63     		str	r2, [r3, #48]
  40 0020 1A6B     		ldr	r2, [r3, #48]
  41 0022 02F08002 		and	r2, r2, #128
  42 0026 0092     		str	r2, [sp]
  43 0028 009A     		ldr	r2, [sp]
  44 002a 0194     		str	r4, [sp, #4]
  45 002c 1A6B     		ldr	r2, [r3, #48]
  46 002e 42F00102 		orr	r2, r2, #1
  47 0032 1A63     		str	r2, [r3, #48]
  48 0034 1A6B     		ldr	r2, [r3, #48]
  49 0036 02F00102 		and	r2, r2, #1
  50 003a 0192     		str	r2, [sp, #4]
  51 003c 019A     		ldr	r2, [sp, #4]
  52 003e 0294     		str	r4, [sp, #8]
  53 0040 1A6B     		ldr	r2, [r3, #48]
  54 0042 42F00202 		orr	r2, r2, #2
  55 0046 1A63     		str	r2, [r3, #48]
  56 0048 1B6B     		ldr	r3, [r3, #48]
  57 004a 03F00203 		and	r3, r3, #2
  58 004e 0293     		str	r3, [sp, #8]
ARM GAS  C:\Users\PNGUBO~1\AppData\Local\Temp\ccILTzCt.s 			page 2


  59 0050 029B     		ldr	r3, [sp, #8]
  60 0052 4FF4404B 		mov	fp, #49152
  61 0056 CDF80CB0 		str	fp, [sp, #12]
  62 005a 0127     		movs	r7, #1
  63 005c 0497     		str	r7, [sp, #16]
  64 005e DFF880A0 		ldr	r10, .L3+12
  65 0062 2946     		mov	r1, r5
  66 0064 5046     		mov	r0, r10
  67 0066 FFF7FEFF 		bl	HAL_GPIO_Init
  68 006a 4FF44079 		mov	r9, #768
  69 006e CDF80C90 		str	r9, [sp, #12]
  70 0072 2946     		mov	r1, r5
  71 0074 1848     		ldr	r0, .L3+4
  72 0076 FFF7FEFF 		bl	HAL_GPIO_Init
  73 007a 4FF41048 		mov	r8, #36864
  74 007e CDF80C80 		str	r8, [sp, #12]
  75 0082 164E     		ldr	r6, .L3+8
  76 0084 2946     		mov	r1, r5
  77 0086 3046     		mov	r0, r6
  78 0088 FFF7FEFF 		bl	HAL_GPIO_Init
  79 008c 2246     		mov	r2, r4
  80 008e 5946     		mov	r1, fp
  81 0090 5046     		mov	r0, r10
  82 0092 FFF7FEFF 		bl	HAL_GPIO_WritePin
  83 0096 2246     		mov	r2, r4
  84 0098 4946     		mov	r1, r9
  85 009a 0F48     		ldr	r0, .L3+4
  86 009c FFF7FEFF 		bl	HAL_GPIO_WritePin
  87 00a0 2246     		mov	r2, r4
  88 00a2 4146     		mov	r1, r8
  89 00a4 3046     		mov	r0, r6
  90 00a6 FFF7FEFF 		bl	HAL_GPIO_WritePin
  91 00aa 0397     		str	r7, [sp, #12]
  92 00ac 4FF48813 		mov	r3, #1114112
  93 00b0 0493     		str	r3, [sp, #16]
  94 00b2 0597     		str	r7, [sp, #20]
  95 00b4 2946     		mov	r1, r5
  96 00b6 3046     		mov	r0, r6
  97 00b8 FFF7FEFF 		bl	HAL_GPIO_Init
  98 00bc 2246     		mov	r2, r4
  99 00be 0221     		movs	r1, #2
 100 00c0 0620     		movs	r0, #6
 101 00c2 FFF7FEFF 		bl	HAL_NVIC_SetPriority
 102 00c6 0620     		movs	r0, #6
 103 00c8 FFF7FEFF 		bl	HAL_NVIC_EnableIRQ
 104 00cc 09B0     		add	sp, sp, #36
 105              		@ sp needed
 106 00ce BDE8F08F 		pop	{r4, r5, r6, r7, r8, r9, r10, fp, pc}
 107              	.L4:
 108 00d2 00BF     		.align	2
 109              	.L3:
 110 00d4 00380240 		.word	1073887232
 111 00d8 00040240 		.word	1073873920
 112 00dc 00000240 		.word	1073872896
 113 00e0 00080240 		.word	1073874944
 115              		.section	.text.MX_DMA_Init,"ax",%progbits
 116              		.align	1
ARM GAS  C:\Users\PNGUBO~1\AppData\Local\Temp\ccILTzCt.s 			page 3


 117              		.syntax unified
 118              		.thumb
 119              		.thumb_func
 121              	MX_DMA_Init:
 122              		@ args = 0, pretend = 0, frame = 8
 123              		@ frame_needed = 0, uses_anonymous_args = 0
 124 0000 00B5     		push	{lr}
 125 0002 83B0     		sub	sp, sp, #12
 126 0004 0021     		movs	r1, #0
 127 0006 0191     		str	r1, [sp, #4]
 128 0008 094B     		ldr	r3, .L7
 129 000a 1A6B     		ldr	r2, [r3, #48]
 130 000c 42F40012 		orr	r2, r2, #2097152
 131 0010 1A63     		str	r2, [r3, #48]
 132 0012 1B6B     		ldr	r3, [r3, #48]
 133 0014 03F40013 		and	r3, r3, #2097152
 134 0018 0193     		str	r3, [sp, #4]
 135 001a 019B     		ldr	r3, [sp, #4]
 136 001c 0A46     		mov	r2, r1
 137 001e 1020     		movs	r0, #16
 138 0020 FFF7FEFF 		bl	HAL_NVIC_SetPriority
 139 0024 1020     		movs	r0, #16
 140 0026 FFF7FEFF 		bl	HAL_NVIC_EnableIRQ
 141 002a 03B0     		add	sp, sp, #12
 142              		@ sp needed
 143 002c 5DF804FB 		ldr	pc, [sp], #4
 144              	.L8:
 145              		.align	2
 146              	.L7:
 147 0030 00380240 		.word	1073887232
 149              		.section	.text.EXTI0_IRQHandler,"ax",%progbits
 150              		.align	1
 151              		.global	EXTI0_IRQHandler
 152              		.syntax unified
 153              		.thumb
 154              		.thumb_func
 156              	EXTI0_IRQHandler:
 157              		@ args = 0, pretend = 0, frame = 0
 158              		@ frame_needed = 0, uses_anonymous_args = 0
 159 0000 08B5     		push	{r3, lr}
 160 0002 0120     		movs	r0, #1
 161 0004 FFF7FEFF 		bl	HAL_GPIO_EXTI_IRQHandler
 162 0008 08BD     		pop	{r3, pc}
 164              		.section	.text.Error_Handler,"ax",%progbits
 165              		.align	1
 166              		.global	Error_Handler
 167              		.syntax unified
 168              		.thumb
 169              		.thumb_func
 171              	Error_Handler:
 172              		@ Volatile: function does not return.
 173              		@ args = 0, pretend = 0, frame = 0
 174              		@ frame_needed = 0, uses_anonymous_args = 0
 175              		@ link register save eliminated.
 176              		.syntax unified
 177              	@ 962 "Drivers/CMSIS/Include/cmsis_gcc.h" 1
 178 0000 72B6     		cpsid i
ARM GAS  C:\Users\PNGUBO~1\AppData\Local\Temp\ccILTzCt.s 			page 4


 179              	@ 0 "" 2
 180              		.thumb
 181              		.syntax unified
 182              	.L12:
 183 0002 FEE7     		b	.L12
 185              		.section	.text.MX_TIM2_Init,"ax",%progbits
 186              		.align	1
 187              		.syntax unified
 188              		.thumb
 189              		.thumb_func
 191              	MX_TIM2_Init:
 192              		@ args = 0, pretend = 0, frame = 56
 193              		@ frame_needed = 0, uses_anonymous_args = 0
 194 0000 00B5     		push	{lr}
 195 0002 8FB0     		sub	sp, sp, #60
 196 0004 0023     		movs	r3, #0
 197 0006 0A93     		str	r3, [sp, #40]
 198 0008 0B93     		str	r3, [sp, #44]
 199 000a 0C93     		str	r3, [sp, #48]
 200 000c 0D93     		str	r3, [sp, #52]
 201 000e 0893     		str	r3, [sp, #32]
 202 0010 0993     		str	r3, [sp, #36]
 203 0012 0193     		str	r3, [sp, #4]
 204 0014 0293     		str	r3, [sp, #8]
 205 0016 0393     		str	r3, [sp, #12]
 206 0018 0493     		str	r3, [sp, #16]
 207 001a 0593     		str	r3, [sp, #20]
 208 001c 0693     		str	r3, [sp, #24]
 209 001e 0793     		str	r3, [sp, #28]
 210 0020 3648     		ldr	r0, .L27
 211 0022 4FF08042 		mov	r2, #1073741824
 212 0026 0260     		str	r2, [r0]
 213 0028 4360     		str	r3, [r0, #4]
 214 002a 8360     		str	r3, [r0, #8]
 215 002c 344A     		ldr	r2, .L27+4
 216 002e 1268     		ldr	r2, [r2]
 217 0030 013A     		subs	r2, r2, #1
 218 0032 C260     		str	r2, [r0, #12]
 219 0034 0361     		str	r3, [r0, #16]
 220 0036 8361     		str	r3, [r0, #24]
 221 0038 FFF7FEFF 		bl	HAL_TIM_Base_Init
 222 003c 0028     		cmp	r0, #0
 223 003e 50D1     		bne	.L21
 224 0040 4FF48053 		mov	r3, #4096
 225 0044 0A93     		str	r3, [sp, #40]
 226 0046 0AA9     		add	r1, sp, #40
 227 0048 2C48     		ldr	r0, .L27
 228 004a FFF7FEFF 		bl	HAL_TIM_ConfigClockSource
 229 004e 0028     		cmp	r0, #0
 230 0050 49D1     		bne	.L22
 231 0052 2A48     		ldr	r0, .L27
 232 0054 FFF7FEFF 		bl	HAL_TIM_OC_Init
 233 0058 0028     		cmp	r0, #0
 234 005a 46D1     		bne	.L23
 235 005c 0023     		movs	r3, #0
 236 005e 0893     		str	r3, [sp, #32]
 237 0060 0993     		str	r3, [sp, #36]
ARM GAS  C:\Users\PNGUBO~1\AppData\Local\Temp\ccILTzCt.s 			page 5


 238 0062 08A9     		add	r1, sp, #32
 239 0064 2548     		ldr	r0, .L27
 240 0066 FFF7FEFF 		bl	HAL_TIMEx_MasterConfigSynchronization
 241 006a 0028     		cmp	r0, #0
 242 006c 3FD1     		bne	.L24
 243 006e 0022     		movs	r2, #0
 244 0070 0192     		str	r2, [sp, #4]
 245 0072 0292     		str	r2, [sp, #8]
 246 0074 0392     		str	r2, [sp, #12]
 247 0076 0592     		str	r2, [sp, #20]
 248 0078 01A9     		add	r1, sp, #4
 249 007a 2048     		ldr	r0, .L27
 250 007c FFF7FEFF 		bl	HAL_TIM_OC_ConfigChannel
 251 0080 0028     		cmp	r0, #0
 252 0082 36D1     		bne	.L25
 253 0084 0023     		movs	r3, #0
 254 0086 0093     		str	r3, [sp]
 255 0088 1E4A     		ldr	r2, .L27+8
 256 008a 116B     		ldr	r1, [r2, #48]
 257 008c 41F40011 		orr	r1, r1, #2097152
 258 0090 1163     		str	r1, [r2, #48]
 259 0092 126B     		ldr	r2, [r2, #48]
 260 0094 02F40012 		and	r2, r2, #2097152
 261 0098 0092     		str	r2, [sp]
 262 009a 009A     		ldr	r2, [sp]
 263 009c 1A48     		ldr	r0, .L27+12
 264 009e 1B4A     		ldr	r2, .L27+16
 265 00a0 0260     		str	r2, [r0]
 266 00a2 4FF0C062 		mov	r2, #100663296
 267 00a6 4260     		str	r2, [r0, #4]
 268 00a8 4022     		movs	r2, #64
 269 00aa 8260     		str	r2, [r0, #8]
 270 00ac C360     		str	r3, [r0, #12]
 271 00ae 4FF48062 		mov	r2, #1024
 272 00b2 0261     		str	r2, [r0, #16]
 273 00b4 4FF48052 		mov	r2, #4096
 274 00b8 4261     		str	r2, [r0, #20]
 275 00ba 4FF48042 		mov	r2, #16384
 276 00be 8261     		str	r2, [r0, #24]
 277 00c0 4FF48072 		mov	r2, #256
 278 00c4 C261     		str	r2, [r0, #28]
 279 00c6 4FF40032 		mov	r2, #131072
 280 00ca 0262     		str	r2, [r0, #32]
 281 00cc 4362     		str	r3, [r0, #36]
 282 00ce FFF7FEFF 		bl	HAL_DMA_Init
 283 00d2 80B9     		cbnz	r0, .L26
 284 00d4 094A     		ldr	r2, .L27
 285 00d6 0C4B     		ldr	r3, .L27+12
 286 00d8 5362     		str	r3, [r2, #36]
 287 00da 9A63     		str	r2, [r3, #56]
 288 00dc 0FB0     		add	sp, sp, #60
 289              		@ sp needed
 290 00de 5DF804FB 		ldr	pc, [sp], #4
 291              	.L21:
 292 00e2 FFF7FEFF 		bl	Error_Handler
 293              	.L22:
 294 00e6 FFF7FEFF 		bl	Error_Handler
ARM GAS  C:\Users\PNGUBO~1\AppData\Local\Temp\ccILTzCt.s 			page 6


 295              	.L23:
 296 00ea FFF7FEFF 		bl	Error_Handler
 297              	.L24:
 298 00ee FFF7FEFF 		bl	Error_Handler
 299              	.L25:
 300 00f2 FFF7FEFF 		bl	Error_Handler
 301              	.L26:
 302 00f6 FFF7FEFF 		bl	Error_Handler
 303              	.L28:
 304 00fa 00BF     		.align	2
 305              	.L27:
 306 00fc 00000000 		.word	htim2
 307 0100 00000000 		.word	TIM2_Ticks
 308 0104 00380240 		.word	1073887232
 309 0108 00000000 		.word	hdma_tim2_ch1
 310 010c 88600240 		.word	1073897608
 312              		.section	.text.MX_TIM3_Init,"ax",%progbits
 313              		.align	1
 314              		.syntax unified
 315              		.thumb
 316              		.thumb_func
 318              	MX_TIM3_Init:
 319              		@ args = 0, pretend = 0, frame = 56
 320              		@ frame_needed = 0, uses_anonymous_args = 0
 321 0000 00B5     		push	{lr}
 322 0002 8FB0     		sub	sp, sp, #60
 323 0004 0023     		movs	r3, #0
 324 0006 0A93     		str	r3, [sp, #40]
 325 0008 0B93     		str	r3, [sp, #44]
 326 000a 0C93     		str	r3, [sp, #48]
 327 000c 0D93     		str	r3, [sp, #52]
 328 000e 0893     		str	r3, [sp, #32]
 329 0010 0993     		str	r3, [sp, #36]
 330 0012 0193     		str	r3, [sp, #4]
 331 0014 0293     		str	r3, [sp, #8]
 332 0016 0393     		str	r3, [sp, #12]
 333 0018 0493     		str	r3, [sp, #16]
 334 001a 0593     		str	r3, [sp, #20]
 335 001c 0693     		str	r3, [sp, #24]
 336 001e 0793     		str	r3, [sp, #28]
 337 0020 1E48     		ldr	r0, .L41
 338 0022 1F4A     		ldr	r2, .L41+4
 339 0024 0260     		str	r2, [r0]
 340 0026 4360     		str	r3, [r0, #4]
 341 0028 8360     		str	r3, [r0, #8]
 342 002a 40F6FF72 		movw	r2, #4095
 343 002e C260     		str	r2, [r0, #12]
 344 0030 0361     		str	r3, [r0, #16]
 345 0032 8361     		str	r3, [r0, #24]
 346 0034 FFF7FEFF 		bl	HAL_TIM_Base_Init
 347 0038 28BB     		cbnz	r0, .L36
 348 003a 4FF48053 		mov	r3, #4096
 349 003e 0A93     		str	r3, [sp, #40]
 350 0040 0AA9     		add	r1, sp, #40
 351 0042 1648     		ldr	r0, .L41
 352 0044 FFF7FEFF 		bl	HAL_TIM_ConfigClockSource
 353 0048 F8B9     		cbnz	r0, .L37
ARM GAS  C:\Users\PNGUBO~1\AppData\Local\Temp\ccILTzCt.s 			page 7


 354 004a 1448     		ldr	r0, .L41
 355 004c FFF7FEFF 		bl	HAL_TIM_PWM_Init
 356 0050 E8B9     		cbnz	r0, .L38
 357 0052 0023     		movs	r3, #0
 358 0054 0893     		str	r3, [sp, #32]
 359 0056 0993     		str	r3, [sp, #36]
 360 0058 08A9     		add	r1, sp, #32
 361 005a 1048     		ldr	r0, .L41
 362 005c FFF7FEFF 		bl	HAL_TIMEx_MasterConfigSynchronization
 363 0060 B8B9     		cbnz	r0, .L39
 364 0062 6023     		movs	r3, #96
 365 0064 0193     		str	r3, [sp, #4]
 366 0066 0023     		movs	r3, #0
 367 0068 0293     		str	r3, [sp, #8]
 368 006a 0393     		str	r3, [sp, #12]
 369 006c 0593     		str	r3, [sp, #20]
 370 006e 0822     		movs	r2, #8
 371 0070 01A9     		add	r1, sp, #4
 372 0072 0A48     		ldr	r0, .L41
 373 0074 FFF7FEFF 		bl	HAL_TIM_PWM_ConfigChannel
 374 0078 68B9     		cbnz	r0, .L40
 375 007a 0848     		ldr	r0, .L41
 376 007c FFF7FEFF 		bl	HAL_TIM_MspPostInit
 377 0080 0FB0     		add	sp, sp, #60
 378              		@ sp needed
 379 0082 5DF804FB 		ldr	pc, [sp], #4
 380              	.L36:
 381 0086 FFF7FEFF 		bl	Error_Handler
 382              	.L37:
 383 008a FFF7FEFF 		bl	Error_Handler
 384              	.L38:
 385 008e FFF7FEFF 		bl	Error_Handler
 386              	.L39:
 387 0092 FFF7FEFF 		bl	Error_Handler
 388              	.L40:
 389 0096 FFF7FEFF 		bl	Error_Handler
 390              	.L42:
 391 009a 00BF     		.align	2
 392              	.L41:
 393 009c 00000000 		.word	htim3
 394 00a0 00040040 		.word	1073742848
 396              		.section	.text.SystemClock_Config,"ax",%progbits
 397              		.align	1
 398              		.global	SystemClock_Config
 399              		.syntax unified
 400              		.thumb
 401              		.thumb_func
 403              	SystemClock_Config:
 404              		@ args = 0, pretend = 0, frame = 80
 405              		@ frame_needed = 0, uses_anonymous_args = 0
 406 0000 10B5     		push	{r4, lr}
 407 0002 94B0     		sub	sp, sp, #80
 408 0004 07AC     		add	r4, sp, #28
 409 0006 3422     		movs	r2, #52
 410 0008 0021     		movs	r1, #0
 411 000a 2046     		mov	r0, r4
 412 000c FFF7FEFF 		bl	memset
ARM GAS  C:\Users\PNGUBO~1\AppData\Local\Temp\ccILTzCt.s 			page 8


 413 0010 0023     		movs	r3, #0
 414 0012 0293     		str	r3, [sp, #8]
 415 0014 0393     		str	r3, [sp, #12]
 416 0016 0493     		str	r3, [sp, #16]
 417 0018 0593     		str	r3, [sp, #20]
 418 001a 0693     		str	r3, [sp, #24]
 419 001c 0093     		str	r3, [sp]
 420 001e 194A     		ldr	r2, .L49
 421 0020 116C     		ldr	r1, [r2, #64]
 422 0022 41F08051 		orr	r1, r1, #268435456
 423 0026 1164     		str	r1, [r2, #64]
 424 0028 126C     		ldr	r2, [r2, #64]
 425 002a 02F08052 		and	r2, r2, #268435456
 426 002e 0092     		str	r2, [sp]
 427 0030 009A     		ldr	r2, [sp]
 428 0032 0193     		str	r3, [sp, #4]
 429 0034 1449     		ldr	r1, .L49+4
 430 0036 0A68     		ldr	r2, [r1]
 431 0038 22F44042 		bic	r2, r2, #49152
 432 003c 42F48042 		orr	r2, r2, #16384
 433 0040 0A60     		str	r2, [r1]
 434 0042 0A68     		ldr	r2, [r1]
 435 0044 02F44042 		and	r2, r2, #49152
 436 0048 0192     		str	r2, [sp, #4]
 437 004a 019A     		ldr	r2, [sp, #4]
 438 004c 0222     		movs	r2, #2
 439 004e 0792     		str	r2, [sp, #28]
 440 0050 0122     		movs	r2, #1
 441 0052 0A92     		str	r2, [sp, #40]
 442 0054 1022     		movs	r2, #16
 443 0056 0B92     		str	r2, [sp, #44]
 444 0058 0D93     		str	r3, [sp, #52]
 445 005a 2046     		mov	r0, r4
 446 005c FFF7FEFF 		bl	HAL_RCC_OscConfig
 447 0060 60B9     		cbnz	r0, .L47
 448 0062 0F23     		movs	r3, #15
 449 0064 0293     		str	r3, [sp, #8]
 450 0066 0021     		movs	r1, #0
 451 0068 0391     		str	r1, [sp, #12]
 452 006a 0491     		str	r1, [sp, #16]
 453 006c 0591     		str	r1, [sp, #20]
 454 006e 0691     		str	r1, [sp, #24]
 455 0070 02A8     		add	r0, sp, #8
 456 0072 FFF7FEFF 		bl	HAL_RCC_ClockConfig
 457 0076 18B9     		cbnz	r0, .L48
 458 0078 14B0     		add	sp, sp, #80
 459              		@ sp needed
 460 007a 10BD     		pop	{r4, pc}
 461              	.L47:
 462 007c FFF7FEFF 		bl	Error_Handler
 463              	.L48:
 464 0080 FFF7FEFF 		bl	Error_Handler
 465              	.L50:
 466              		.align	2
 467              	.L49:
 468 0084 00380240 		.word	1073887232
 469 0088 00700040 		.word	1073770496
ARM GAS  C:\Users\PNGUBO~1\AppData\Local\Temp\ccILTzCt.s 			page 9


 471              		.section	.text.main,"ax",%progbits
 472              		.align	1
 473              		.global	main
 474              		.syntax unified
 475              		.thumb
 476              		.thumb_func
 478              	main:
 479              		@ Volatile: function does not return.
 480              		@ args = 0, pretend = 0, frame = 0
 481              		@ frame_needed = 0, uses_anonymous_args = 0
 482 0000 08B5     		push	{r3, lr}
 483 0002 FFF7FEFF 		bl	HAL_Init
 484 0006 FFF7FEFF 		bl	init_LCD
 485 000a 0120     		movs	r0, #1
 486 000c FFF7FEFF 		bl	lcd_command
 487 0010 FFF7FEFF 		bl	SystemClock_Config
 488 0014 FFF7FEFF 		bl	MX_GPIO_Init
 489 0018 FFF7FEFF 		bl	MX_DMA_Init
 490 001c FFF7FEFF 		bl	MX_TIM2_Init
 491 0020 FFF7FEFF 		bl	MX_TIM3_Init
 492              	.L52:
 493 0024 FEE7     		b	.L52
 495              		.global	DestAddress
 496              		.section	.data.DestAddress,"aw"
 497              		.align	2
 500              	DestAddress:
 501 0000 3C040040 		.word	1073742908
 502              		.global	TIM2_Ticks
 503              		.section	.bss.TIM2_Ticks,"aw",%nobits
 504              		.align	2
 507              	TIM2_Ticks:
 508 0000 00000000 		.space	4
 509              		.global	Drum_LUT
 510              		.section	.bss.Drum_LUT,"aw",%nobits
 511              		.align	2
 514              	Drum_LUT:
 515 0000 00000000 		.space	4
 516              		.global	Guitar_LUT
 517              		.section	.bss.Guitar_LUT,"aw",%nobits
 518              		.align	2
 521              	Guitar_LUT:
 522 0000 00000000 		.space	4
 523              		.global	Piano_LUT
 524              		.section	.bss.Piano_LUT,"aw",%nobits
 525              		.align	2
 528              	Piano_LUT:
 529 0000 00000000 		.space	4
 530              		.global	Triangle_LUT
 531              		.section	.bss.Triangle_LUT,"aw",%nobits
 532              		.align	2
 535              	Triangle_LUT:
 536              		.global	Saw_LUT
 537              		.section	.bss.Saw_LUT,"aw",%nobits
 538              		.align	2
 541              	Saw_LUT:
 542              		.global	Sin_LUT
 543              		.section	.bss.Sin_LUT,"aw",%nobits
ARM GAS  C:\Users\PNGUBO~1\AppData\Local\Temp\ccILTzCt.s 			page 10


 544              		.align	2
 547              	Sin_LUT:
 548              		.global	hdma_tim2_ch1
 549              		.section	.bss.hdma_tim2_ch1,"aw",%nobits
 550              		.align	2
 553              	hdma_tim2_ch1:
 554 0000 00000000 		.space	96
 554      00000000 
 554      00000000 
 554      00000000 
 554      00000000 
 555              		.global	htim3
 556              		.section	.bss.htim3,"aw",%nobits
 557              		.align	2
 560              	htim3:
 561 0000 00000000 		.space	72
 561      00000000 
 561      00000000 
 561      00000000 
 561      00000000 
 562              		.global	htim2
 563              		.section	.bss.htim2,"aw",%nobits
 564              		.align	2
 567              	htim2:
 568 0000 00000000 		.space	72
 568      00000000 
 568      00000000 
 568      00000000 
 568      00000000 
 569              		.ident	"GCC: (xPack GNU Arm Embedded GCC x86_64) 14.2.1 20241119"
ARM GAS  C:\Users\PNGUBO~1\AppData\Local\Temp\ccILTzCt.s 			page 11

